target datalayout = "e-m:e-p270:32:32-p271:32:32-p272:64:64-i64:64-i128:128-f80:128-n8:16:32:64-S128"
target triple = "x86_64-pc-linux-gnu"

%struct.dlist_head = type { %struct.dlist_node }
%struct.dlist_node = type { ptr, ptr }

@dsm_segment_list = internal global %struct.dlist_head { %struct.dlist_node { ptr @dsm_segment_list, ptr @dsm_segment_list } }, align 8

; Function Attrs: inlinehint nounwind uwtable
define internal ptr @dlist_head_element_off(ptr noundef %0, i64 noundef %1) #4 {
  %3 = alloca ptr, align 8
  %4 = alloca i64, align 8
  store ptr %0, ptr %3, align 8
  store i64 %1, ptr %4, align 8
  %5 = load ptr, ptr %3, align 8
  %6 = getelementptr inbounds nuw %struct.dlist_head, ptr %5, i32 0, i32 0
  %7 = getelementptr inbounds nuw %struct.dlist_node, ptr %6, i32 0, i32 1
  %8 = load ptr, ptr %7, align 8
  %9 = load i64, ptr %4, align 8
  %10 = sub i64 0, %9
  %11 = getelementptr inbounds i8, ptr %8, i64 %10
  ret ptr %11
}

; Function Attrs: inlinehint nounwind uwtable
define internal zeroext i1 @dlist_is_empty(ptr noundef %0) #4 {
  %2 = alloca ptr, align 8
  store ptr %0, ptr %2, align 8
  %3 = load ptr, ptr %2, align 8
  %4 = getelementptr inbounds nuw %struct.dlist_head, ptr %3, i32 0, i32 0
  %5 = getelementptr inbounds nuw %struct.dlist_node, ptr %4, i32 0, i32 1
  %6 = load ptr, ptr %5, align 8
  %7 = icmp eq ptr %6, null
  br i1 %7, label %16, label %8

8:                                                ; preds = %1
  %9 = load ptr, ptr %2, align 8
  %10 = getelementptr inbounds nuw %struct.dlist_head, ptr %9, i32 0, i32 0
  %11 = getelementptr inbounds nuw %struct.dlist_node, ptr %10, i32 0, i32 1
  %12 = load ptr, ptr %11, align 8
  %13 = load ptr, ptr %2, align 8
  %14 = getelementptr inbounds nuw %struct.dlist_head, ptr %13, i32 0, i32 0
  %15 = icmp eq ptr %12, %14
  br label %16

16:                                               ; preds = %8, %1
  %17 = phi i1 [ true, %1 ], [ %15, %8 ]
  ret i1 %17
}

; Function Attrs: nounwind uwtable
define dso_local void @dsm_backend_shutdown() #0 {
  %1 = alloca ptr, align 8
  %2 = alloca i32, align 4
  br label %3

3:                                                ; preds = %9, %0
  %4 = call zeroext i1 @dlist_is_empty(ptr noundef @dsm_segment_list)
  %5 = xor i1 %4, true
  br i1 %5, label %6, label %12

6:                                                ; preds = %3
  call void @llvm.lifetime.start.p0(i64 8, ptr %1) #8
  br label %7

7:                                                ; preds = %6
  br label %8

8:                                                ; preds = %7
  br label %9

9:                                                ; preds = %8
  store i32 1, ptr %2, align 4
  %10 = call ptr @dlist_head_element_off(ptr noundef @dsm_segment_list, i64 noundef 0)
  store ptr %10, ptr %1, align 8
  %11 = load ptr, ptr %1, align 8
  call void @dsm_detach(ptr noundef %11)
  call void @llvm.lifetime.end.p0(i64 8, ptr %1) #8
  br label %3, !llvm.loop !15

12:                                               ; preds = %3
  ret void
}