; Function Attrs: nounwind uwtable
define dso_local void @dsm_backend_shutdown() local_unnamed_addr #0 {
  %1 = load ptr, ptr getelementptr inbounds nuw (i8, ptr @dsm_segment_list, i64 8), align 8
  %2 = icmp eq ptr %1, null
  %3 = icmp eq ptr %1, @dsm_segment_list
  %spec.select.i1 = or i1 %2, %3
  br i1 %spec.select.i1, label %._crit_edge, label %.lr.ph

.lr.ph:                                           ; preds = %0, %.lr.ph
  %4 = phi ptr [ %5, %.lr.ph ], [ %1, %0 ]
  tail call void @dsm_detach(ptr noundef nonnull %4)
  %5 = load ptr, ptr getelementptr inbounds nuw (i8, ptr @dsm_segment_list, i64 8), align 8
  %6 = icmp eq ptr %5, null
  %7 = icmp eq ptr %5, @dsm_segment_list
  %spec.select.i = or i1 %6, %7
  br i1 %spec.select.i, label %._crit_edge, label %.lr.ph, !llvm.loop !14

._crit_edge:                                      ; preds = %.lr.ph, %0
  ret void
}